target datalayout = "e-m:e-p270:32:32-p271:32:32-p272:64:64-i64:64-i128:128-f80:128-n8:16:32:64-S128"
target triple = "x86_64-pc-linux-gnu"

%struct.ObjectAddress = type { i32, i32, i32 }

@creating_extension = external global i8, align 1
@CurrentExtensionObject = external global i32, align 4
@.str.1 = private unnamed_addr constant [12 x i8] c"pg_depend.c\00", align 1
@.str.2 = private unnamed_addr constant [37 x i8] c"%s is not a member of extension \22%s\22\00", align 1
@.str.4 = private unnamed_addr constant [130 x i8] c"An extension may only use CREATE ... IF NOT EXISTS to skip object creation if the conflicting object is one that it already owns.\00", align 1
@__func__.checkMembershipInCurrentExtension = private unnamed_addr constant [34 x i8] c"checkMembershipInCurrentExtension\00", align 1

; Function Attrs: nounwind uwtable
define dso_local void @checkMembershipInCurrentExtension(ptr noundef %0) #0 {
  %2 = alloca ptr, align 8
  %3 = alloca i32, align 4
  %4 = alloca i32, align 4
  store ptr %0, ptr %2, align 8
  %5 = load i8, ptr @creating_extension, align 1, !range !7, !noundef !8
  %6 = trunc i8 %5 to i1
  br i1 %6, label %7, label %39

7:                                                ; preds = %1
  call void @llvm.lifetime.start.p0(i64 4, ptr %3) #6
  %8 = load ptr, ptr %2, align 8
  %9 = getelementptr inbounds nuw %struct.ObjectAddress, ptr %8, i32 0, i32 0
  %10 = load i32, ptr %9, align 4
  %11 = load ptr, ptr %2, align 8
  %12 = getelementptr inbounds nuw %struct.ObjectAddress, ptr %11, i32 0, i32 1
  %13 = load i32, ptr %12, align 4
  %14 = call i32 @getExtensionOfObject(i32 noundef %10, i32 noundef %13)
  store i32 %14, ptr %3, align 4
  %15 = load i32, ptr %3, align 4
  %16 = load i32, ptr @CurrentExtensionObject, align 4
  %17 = icmp eq i32 %15, %16
  br i1 %17, label %18, label %19

18:                                               ; preds = %7
  store i32 1, ptr %4, align 4
  br label %36

19:                                               ; preds = %7
  br label %20

20:                                               ; preds = %19
  br i1 true, label %21, label %23

21:                                               ; preds = %20
  %22 = call zeroext i1 @errstart_cold(i32 noundef 21, ptr noundef null) #7
  br i1 %22, label %25, label %33

23:                                               ; preds = %20
  %24 = call zeroext i1 @errstart(i32 noundef 21, ptr noundef null)
  br i1 %24, label %25, label %33

25:                                               ; preds = %23, %21
  %26 = call i32 @errcode(i32 noundef 325)
  %27 = load ptr, ptr %2, align 8
  %28 = call ptr @getObjectDescription(ptr noundef %27, i1 noundef zeroext false)
  %29 = load i32, ptr @CurrentExtensionObject, align 4
  %30 = call ptr @get_extension_name(i32 noundef %29)
  %31 = call i32 (ptr, ...) @errmsg(ptr noundef @.str.2, ptr noundef %28, ptr noundef %30)
  %32 = call i32 (ptr, ...) @errdetail(ptr noundef @.str.4)
  call void @errfinish(ptr noundef @.str.1, i32 noundef 284, ptr noundef @__func__.checkMembershipInCurrentExtension)
  br label %33

33:                                               ; preds = %25, %23, %21
  unreachable

34:                                               ; No predecessors!
  br label %35

35:                                               ; preds = %34
  store i32 0, ptr %4, align 4
  br label %36

36:                                               ; preds = %35, %18
  call void @llvm.lifetime.end.p0(i64 4, ptr %3) #6
  %37 = load i32, ptr %4, align 4
  switch i32 %37, label %40 [
    i32 0, label %38
    i32 1, label %39
  ]

38:                                               ; preds = %36
  br label %39

39:                                               ; preds = %36, %38, %1
  ret void

40:                                               ; preds = %36
  unreachable
}