; Function Attrs: nounwind uwtable
define dso_local void @checkMembershipInCurrentExtension(ptr noundef %0) local_unnamed_addr #0 {
  %2 = load i8, ptr @creating_extension, align 1, !range !7, !noundef !8
  %3 = trunc nuw i8 %2 to i1
  br i1 %3, label %4, label %19

4:                                                ; preds = %1
  %5 = load i32, ptr %0, align 4
  %6 = getelementptr inbounds nuw i8, ptr %0, i64 4
  %7 = load i32, ptr %6, align 4
  %8 = tail call i32 @getExtensionOfObject(i32 noundef %5, i32 noundef %7)
  %9 = load i32, ptr @CurrentExtensionObject, align 4
  %10 = icmp eq i32 %8, %9
  br i1 %10, label %19, label %11

11:                                               ; preds = %4
  %12 = tail call zeroext i1 @errstart_cold(i32 noundef 21, ptr noundef null) #8
  tail call void @llvm.assume(i1 %12)
  %13 = tail call i32 @errcode(i32 noundef 325) #7
  %14 = tail call ptr @getObjectDescription(ptr noundef nonnull %0, i1 noundef zeroext false) #7
  %15 = load i32, ptr @CurrentExtensionObject, align 4
  %16 = tail call ptr @get_extension_name(i32 noundef %15) #7
  %17 = tail call i32 (ptr, ...) @errmsg(ptr noundef nonnull @.str.2, ptr noundef %14, ptr noundef %16) #7
  %18 = tail call i32 (ptr, ...) @errdetail(ptr noundef nonnull @.str.4) #7
  tail call void @errfinish(ptr noundef nonnull @.str.1, i32 noundef 284, ptr noundef nonnull @__func__.checkMembershipInCurrentExtension) #7
  unreachable

19:                                               ; preds = %4, %1
  ret void
}